target datalayout = "e-m:e-p270:32:32-p271:32:32-p272:64:64-i64:64-i128:128-f80:128-n8:16:32:64-S128"
target triple = "x86_64-pc-linux-gnu"

%struct.PJ_LP = type { double, double }
%struct.PJ_XY = type { double, double }
%union.PJ_COORD = type { [4 x double] }

; Function Attrs: mustprogress uwtable
define internal { double, double } @_ZL15vandg_s_inverse5PJ_XYP8PJconsts(double %0, double %1, ptr noundef %2) #0 {
  %4 = alloca %struct.PJ_LP, align 8
  %5 = alloca %struct.PJ_XY, align 8
  %6 = alloca ptr, align 8
  %7 = alloca %struct.PJ_LP, align 8
  %8 = alloca double, align 8
  %9 = alloca double, align 8
  %10 = alloca double, align 8
  %11 = alloca double, align 8
  %12 = alloca double, align 8
  %13 = alloca double, align 8
  %14 = alloca double, align 8
  %15 = alloca double, align 8
  %16 = alloca double, align 8
  %17 = alloca double, align 8
  %18 = alloca double, align 8
  %19 = alloca double, align 8
  %20 = alloca double, align 8
  %21 = alloca double, align 8
  %22 = alloca %union.PJ_COORD, align 8
  %23 = getelementptr inbounds { double, double }, ptr %5, i32 0, i32 0
  store double %0, ptr %23, align 8
  %24 = getelementptr inbounds { double, double }, ptr %5, i32 0, i32 1
  store double %1, ptr %24, align 8
  store ptr %2, ptr %6, align 8
  call void @llvm.memset.p0.i64(ptr align 8 %7, i8 0, i64 16, i1 false)
  %25 = getelementptr inbounds %struct.PJ_XY, ptr %5, i32 0, i32 0
  %26 = load double, ptr %25, align 8
  %27 = getelementptr inbounds %struct.PJ_XY, ptr %5, i32 0, i32 0
  %28 = load double, ptr %27, align 8
  %29 = fmul double %26, %28
  store double %29, ptr %19, align 8
  %30 = getelementptr inbounds %struct.PJ_XY, ptr %5, i32 0, i32 1
  %31 = load double, ptr %30, align 8
  %32 = call double @llvm.fabs.f64(double %31)
  store double %32, ptr %18, align 8
  %33 = fcmp olt double %32, 1.000000e-10
  br i1 %33, label %34, label %60

34:                                               ; preds = %3
  %35 = getelementptr inbounds %struct.PJ_LP, ptr %7, i32 0, i32 1
  store double 0.000000e+00, ptr %35, align 8
  %36 = load double, ptr %19, align 8
  %37 = load double, ptr %19, align 8
  %38 = load double, ptr %19, align 8
  %39 = fadd double %38, 0x4013BD3CC9BE45DE
  %40 = fmul double 0x4033BD3CC9BE45DE, %39
  %41 = call double @llvm.fmuladd.f64(double %36, double %37, double %40)
  store double %41, ptr %8, align 8
  %42 = getelementptr inbounds %struct.PJ_XY, ptr %5, i32 0, i32 0
  %43 = load double, ptr %42, align 8
  %44 = call double @llvm.fabs.f64(double %43)
  %45 = fcmp ole double %44, 1.000000e-10
  br i1 %45, label %46, label %47

46:                                               ; preds = %34
  br label %57

47:                                               ; preds = %34
  %48 = load double, ptr %19, align 8
  %49 = fsub double %48, 0x4023BD3CC9BE45DE
  %50 = load double, ptr %8, align 8
  %51 = call double @sqrt(double noundef %50) #7
  %52 = fadd double %49, %51
  %53 = fmul double 5.000000e-01, %52
  %54 = getelementptr inbounds %struct.PJ_XY, ptr %5, i32 0, i32 0
  %55 = load double, ptr %54, align 8
  %56 = fdiv double %53, %55
  br label %57

57:                                               ; preds = %47, %46
  %58 = phi double [ 0.000000e+00, %46 ], [ %56, %47 ]
  %59 = getelementptr inbounds %struct.PJ_LP, ptr %7, i32 0, i32 0
  store double %58, ptr %59, align 8
  call void @llvm.memcpy.p0.p0.i64(ptr align 8 %4, ptr align 8 %7, i64 16, i1 false)
  br label %215

60:                                               ; preds = %3
  %61 = getelementptr inbounds %struct.PJ_XY, ptr %5, i32 0, i32 1
  %62 = load double, ptr %61, align 8
  %63 = getelementptr inbounds %struct.PJ_XY, ptr %5, i32 0, i32 1
  %64 = load double, ptr %63, align 8
  %65 = fmul double %62, %64
  store double %65, ptr %20, align 8
  %66 = load double, ptr %19, align 8
  %67 = load double, ptr %20, align 8
  %68 = fadd double %66, %67
  store double %68, ptr %15, align 8
  %69 = load double, ptr %15, align 8
  %70 = load double, ptr %15, align 8
  %71 = fmul double %69, %70
  store double %71, ptr %14, align 8
  %72 = load double, ptr %18, align 8
  %73 = fmul double 0xC00921FB54442D18, %72
  %74 = load double, ptr %15, align 8
  %75 = fadd double %74, 0x4023BD3CC9BE45DE
  %76 = fmul double %73, %75
  store double %76, ptr %10, align 8
  %77 = load double, ptr %14, align 8
  %78 = load double, ptr %18, align 8
  %79 = load double, ptr %15, align 8
  %80 = load double, ptr %20, align 8
  %81 = load double, ptr %18, align 8
  %82 = fadd double %81, 0x3FF921FB54442D18
  %83 = call double @llvm.fmuladd.f64(double 0x400921FB54442D18, double %82, double %80)
  %84 = fmul double 0x400921FB54442D18, %83
  %85 = call double @llvm.fmuladd.f64(double %78, double %79, double %84)
  %86 = call double @llvm.fmuladd.f64(double 0x401921FB54442D18, double %85, double %77)
  store double %86, ptr %12, align 8
  %87 = load double, ptr %10, align 8
  %88 = load double, ptr %15, align 8
  %89 = load double, ptr %20, align 8
  %90 = call double @llvm.fmuladd.f64(double -3.000000e+00, double %89, double %88)
  %91 = call double @llvm.fmuladd.f64(double 0x4023BD3CC9BE45DE, double %90, double %87)
  store double %91, ptr %11, align 8
  %92 = load double, ptr %18, align 8
  %93 = fmul double 0x400921FB54442D18, %92
  store double %93, ptr %9, align 8
  %94 = load double, ptr %12, align 8
  %95 = load double, ptr %11, align 8
  %96 = fdiv double %95, %94
  store double %96, ptr %11, align 8
  %97 = load double, ptr %10, align 8
  %98 = load double, ptr %12, align 8
  %99 = fdiv double %97, %98
  %100 = load double, ptr %11, align 8
  %101 = fmul double 0x3FD5555555555555, %100
  %102 = load double, ptr %11, align 8
  %103 = fneg double %101
  %104 = call double @llvm.fmuladd.f64(double %103, double %102, double %99)
  store double %104, ptr %13, align 8
  %105 = load double, ptr %13, align 8
  %106 = fmul double 0xBFD5555555555555, %105
  %107 = call double @sqrt(double noundef %106) #7
  %108 = fmul double 2.000000e+00, %107
  store double %108, ptr %16, align 8
  %109 = load double, ptr %11, align 8
  %110 = fmul double 0x3FB2F684BDA12F68, %109
  %111 = load double, ptr %11, align 8
  %112 = fmul double %110, %111
  %113 = load double, ptr %11, align 8
  %114 = load double, ptr %9, align 8
  %115 = load double, ptr %9, align 8
  %116 = load double, ptr %11, align 8
  %117 = fmul double 0x3FD5555555555555, %116
  %118 = load double, ptr %10, align 8
  %119 = fmul double %117, %118
  %120 = fneg double %119
  %121 = call double @llvm.fmuladd.f64(double %114, double %115, double %120)
  %122 = load double, ptr %12, align 8
  %123 = fdiv double %121, %122
  %124 = call double @llvm.fmuladd.f64(double %112, double %113, double %123)
  store double %124, ptr %17, align 8
  %125 = load double, ptr %13, align 8
  %126 = load double, ptr %16, align 8
  %127 = fmul double %125, %126
  store double %127, ptr %21, align 8
  %128 = load double, ptr %21, align 8
  %129 = call double @llvm.fabs.f64(double %128)
  %130 = fcmp olt double %129, 0x3C9CD2B297D889BC
  br i1 %130, label %131, label %134

131:                                              ; preds = %60
  %132 = load ptr, ptr %6, align 8
  %133 = call i32 @proj_errno_set(ptr noundef %132, i32 noundef 2050)
  call void @_Z16proj_coord_errorv(ptr dead_on_unwind writable sret(%union.PJ_COORD) align 8 %22)
  call void @llvm.memcpy.p0.p0.i64(ptr align 8 %4, ptr align 8 %22, i64 16, i1 false)
  br label %215

134:                                              ; preds = %60
  %135 = load double, ptr %17, align 8
  %136 = fmul double 3.000000e+00, %135
  %137 = load double, ptr %21, align 8
  %138 = fdiv double %136, %137
  store double %138, ptr %17, align 8
  %139 = load double, ptr %17, align 8
  %140 = call double @llvm.fabs.f64(double %139)
  store double %140, ptr %8, align 8
  %141 = load double, ptr %8, align 8
  %142 = fsub double %141, 1.000000e-10
  %143 = fcmp ole double %142, 1.000000e+00
  br i1 %143, label %144, label %211

144:                                              ; preds = %134
  %145 = load double, ptr %8, align 8
  %146 = fcmp ogt double %145, 1.000000e+00
  br i1 %146, label %147, label %151

147:                                              ; preds = %144
  %148 = load double, ptr %17, align 8
  %149 = fcmp ogt double %148, 0.000000e+00
  %150 = select i1 %149, double 0.000000e+00, double 0x400921FB54442D18
  br label %154

151:                                              ; preds = %144
  %152 = load double, ptr %17, align 8
  %153 = call double @acos(double noundef %152) #7
  br label %154

154:                                              ; preds = %151, %147
  %155 = phi double [ %150, %147 ], [ %153, %151 ]
  store double %155, ptr %17, align 8
  %156 = load double, ptr %15, align 8
  %157 = fcmp ogt double %156, 0x4023BD3CC9BE45DE
  br i1 %157, label %158, label %161

158:                                              ; preds = %154
  %159 = load double, ptr %17, align 8
  %160 = fsub double 0x401921FB54442D18, %159
  store double %160, ptr %17, align 8
  br label %161

161:                                              ; preds = %158, %154
  %162 = load double, ptr %16, align 8
  %163 = load double, ptr %17, align 8
  %164 = call double @llvm.fmuladd.f64(double %163, double 0x3FD5555555555555, double 0x4010C152382D7366)
  %165 = call double @cos(double noundef %164) #7
  %166 = load double, ptr %11, align 8
  %167 = fmul double 0x3FD5555555555555, %166
  %168 = fneg double %167
  %169 = call double @llvm.fmuladd.f64(double %162, double %165, double %168)
  %170 = fmul double 0x400921FB54442D18, %169
  %171 = getelementptr inbounds %struct.PJ_LP, ptr %7, i32 0, i32 1
  store double %170, ptr %171, align 8
  %172 = getelementptr inbounds %struct.PJ_XY, ptr %5, i32 0, i32 1
  %173 = load double, ptr %172, align 8
  %174 = fcmp olt double %173, 0.000000e+00
  br i1 %174, label %175, label %180

175:                                              ; preds = %161
  %176 = getelementptr inbounds %struct.PJ_LP, ptr %7, i32 0, i32 1
  %177 = load double, ptr %176, align 8
  %178 = fneg double %177
  %179 = getelementptr inbounds %struct.PJ_LP, ptr %7, i32 0, i32 1
  store double %178, ptr %179, align 8
  br label %180

180:                                              ; preds = %175, %161
  %181 = load double, ptr %14, align 8
  %182 = load double, ptr %19, align 8
  %183 = load double, ptr %20, align 8
  %184 = fsub double %182, %183
  %185 = fadd double %184, 0x4013BD3CC9BE45DE
  %186 = call double @llvm.fmuladd.f64(double 0x4033BD3CC9BE45DE, double %185, double %181)
  store double %186, ptr %8, align 8
  %187 = getelementptr inbounds %struct.PJ_XY, ptr %5, i32 0, i32 0
  %188 = load double, ptr %187, align 8
  %189 = call double @llvm.fabs.f64(double %188)
  %190 = fcmp ole double %189, 1.000000e-10
  br i1 %190, label %191, label %192

191:                                              ; preds = %180
  br label %208

192:                                              ; preds = %180
  %193 = load double, ptr %15, align 8
  %194 = fsub double %193, 0x4023BD3CC9BE45DE
  %195 = load double, ptr %8, align 8
  %196 = fcmp ole double %195, 0.000000e+00
  br i1 %196, label %197, label %198

197:                                              ; preds = %192
  br label %201

198:                                              ; preds = %192
  %199 = load double, ptr %8, align 8
  %200 = call double @sqrt(double noundef %199) #7
  br label %201

201:                                              ; preds = %198, %197
  %202 = phi double [ 0.000000e+00, %197 ], [ %200, %198 ]
  %203 = fadd double %194, %202
  %204 = fmul double 5.000000e-01, %203
  %205 = getelementptr inbounds %struct.PJ_XY, ptr %5, i32 0, i32 0
  %206 = load double, ptr %205, align 8
  %207 = fdiv double %204, %206
  br label %208

208:                                              ; preds = %201, %191
  %209 = phi double [ 0.000000e+00, %191 ], [ %207, %201 ]
  %210 = getelementptr inbounds %struct.PJ_LP, ptr %7, i32 0, i32 0
  store double %209, ptr %210, align 8
  br label %214

211:                                              ; preds = %134
  %212 = load ptr, ptr %6, align 8
  %213 = call i32 @proj_errno_set(ptr noundef %212, i32 noundef 2050)
  call void @llvm.memcpy.p0.p0.i64(ptr align 8 %4, ptr align 8 %7, i64 16, i1 false)
  br label %215

214:                                              ; preds = %208
  call void @llvm.memcpy.p0.p0.i64(ptr align 8 %4, ptr align 8 %7, i64 16, i1 false)
  br label %215

215:                                              ; preds = %214, %211, %131, %57
  %216 = load { double, double }, ptr %4, align 8
  ret { double, double } %216
}