; Function Attrs: mustprogress uwtable
define internal { double, double } @_ZL15vandg_s_inverse5PJ_XYP8PJconsts(double %0, double %1, ptr noundef %2) #0 {
  %4 = alloca %union.PJ_COORD, align 8
  %5 = fmul double %0, %0
  %6 = tail call double @llvm.fabs.f64(double %1)
  %7 = fcmp olt double %6, 1.000000e-10
  br i1 %7, label %8, label %20

8:                                                ; preds = %3
  %9 = tail call double @llvm.fabs.f64(double %0)
  %10 = fcmp ugt double %9, 1.000000e-10
  br i1 %10, label %11, label %102

11:                                               ; preds = %8
  %12 = fadd double %5, 0x4013BD3CC9BE45DE
  %13 = fmul double %12, 0x4033BD3CC9BE45DE
  %14 = tail call double @llvm.fmuladd.f64(double %5, double %5, double %13)
  %15 = fadd double %5, 0xC023BD3CC9BE45DE
  %16 = tail call double @sqrt(double noundef %14) #6
  %17 = fadd double %15, %16
  %18 = fmul double %17, 5.000000e-01
  %19 = fdiv double %18, %0
  br label %102

20:                                               ; preds = %3
  %21 = fmul double %1, %1
  %22 = fmul double %6, 0xC00921FB54442D18
  %23 = fadd double %6, 0x3FF921FB54442D18
  %24 = tail call double @llvm.fmuladd.f64(double %23, double 0x400921FB54442D18, double %21)
  %25 = fmul double %24, 0x400921FB54442D18
  %26 = fadd double %5, %21
  %27 = fadd double %26, 0x4023BD3CC9BE45DE
  %28 = insertelement <2 x double> poison, double %22, i64 0
  %29 = insertelement <2 x double> %28, double %26, i64 1
  %30 = insertelement <2 x double> %29, double %27, i64 0
  %31 = fmul <2 x double> %29, %30
  %32 = insertelement <2 x double> <double -3.000000e+00, double poison>, double %6, i64 1
  %33 = insertelement <2 x double> poison, double %21, i64 0
  %34 = insertelement <2 x double> %33, double %26, i64 1
  %35 = insertelement <2 x double> poison, double %26, i64 0
  %36 = insertelement <2 x double> %35, double %25, i64 1
  %37 = tail call <2 x double> @llvm.fmuladd.v2f64(<2 x double> %32, <2 x double> %34, <2 x double> %36)
  %38 = tail call <2 x double> @llvm.fmuladd.v2f64(<2 x double> %37, <2 x double> <double 0x4023BD3CC9BE45DE, double 0x401921FB54442D18>, <2 x double> %31)
  %39 = extractelement <2 x double> %38, i64 0
  %40 = extractelement <2 x double> %38, i64 1
  %41 = fdiv double %39, %40
  %42 = extractelement <2 x double> %31, i64 0
  %43 = fdiv double %42, %40
  %44 = fmul double %41, 0xBFD5555555555555
  %45 = tail call double @llvm.fmuladd.f64(double %44, double %41, double %43)
  %46 = fmul double %45, 0xBFD5555555555555
  %47 = tail call double @sqrt(double noundef %46) #6
  %48 = fmul double %47, 2.000000e+00
  %49 = fmul double %45, %48
  %50 = tail call double @llvm.fabs.f64(double %49)
  %51 = fcmp olt double %50, 0x3C9CD2B297D889BC
  br i1 %51, label %52, label %54

52:                                               ; preds = %20
  %53 = tail call i32 @proj_errno_set(ptr noundef %2, i32 noundef 2050)
  call void @_Z16proj_coord_errorv(ptr dead_on_unwind nonnull writable sret(%union.PJ_COORD) align 8 %4)
  %.sroa.073.0.copyload = load double, ptr %4, align 8
  %.sroa.5.0..sroa_idx = getelementptr inbounds i8, ptr %4, i64 8
  %.sroa.5.0.copyload = load double, ptr %.sroa.5.0..sroa_idx, align 8
  br label %102

54:                                               ; preds = %20
  %55 = fmul double %41, 0x3FB2F684BDA12F68
  %56 = fmul double %41, %55
  %57 = fmul double %6, 0x400921FB54442D18
  %58 = fmul double %42, %44
  %59 = tail call double @llvm.fmuladd.f64(double %57, double %57, double %58)
  %60 = fdiv double %59, %40
  %61 = tail call double @llvm.fmuladd.f64(double %56, double %41, double %60)
  %62 = fmul double %61, 3.000000e+00
  %63 = fdiv double %62, %49
  %64 = tail call double @llvm.fabs.f64(double %63)
  %65 = fadd double %64, -1.000000e-10
  %66 = fcmp ugt double %65, 1.000000e+00
  br i1 %66, label %100, label %67

67:                                               ; preds = %54
  %68 = fcmp ogt double %64, 1.000000e+00
  br i1 %68, label %69, label %72

69:                                               ; preds = %67
  %70 = fcmp ogt double %63, 0.000000e+00
  %71 = select i1 %70, double 0.000000e+00, double 0x400921FB54442D18
  br label %74

72:                                               ; preds = %67
  %73 = tail call double @acos(double noundef %63) #6
  br label %74

74:                                               ; preds = %72, %69
  %75 = phi double [ %71, %69 ], [ %73, %72 ]
  %76 = fcmp ogt double %26, 0x4023BD3CC9BE45DE
  %77 = fsub double 0x401921FB54442D18, %75
  %.0 = select i1 %76, double %77, double %75
  %78 = tail call double @llvm.fmuladd.f64(double %.0, double 0x3FD5555555555555, double 0x4010C152382D7366)
  %79 = tail call double @cos(double noundef %78) #6
  %80 = tail call double @llvm.fmuladd.f64(double %48, double %79, double %44)
  %81 = fmul double %80, 0x400921FB54442D18
  %82 = fcmp olt double %1, 0.000000e+00
  %83 = fneg double %81
  %.sroa.6.0 = select i1 %82, double %83, double %81
  %84 = fsub double %5, %21
  %85 = fadd double %84, 0x4013BD3CC9BE45DE
  %86 = extractelement <2 x double> %31, i64 1
  %87 = tail call double @llvm.fmuladd.f64(double %85, double 0x4033BD3CC9BE45DE, double %86)
  %88 = tail call double @llvm.fabs.f64(double %0)
  %89 = fcmp ugt double %88, 1.000000e-10
  br i1 %89, label %90, label %102

90:                                               ; preds = %74
  %91 = fadd double %26, 0xC023BD3CC9BE45DE
  %92 = fcmp ugt double %87, 0.000000e+00
  br i1 %92, label %93, label %95

93:                                               ; preds = %90
  %94 = tail call double @sqrt(double noundef %87) #6
  br label %95

95:                                               ; preds = %90, %93
  %96 = phi double [ %94, %93 ], [ 0.000000e+00, %90 ]
  %97 = fadd double %91, %96
  %98 = fmul double %97, 5.000000e-01
  %99 = fdiv double %98, %0
  br label %102

100:                                              ; preds = %54
  %101 = tail call i32 @proj_errno_set(ptr noundef %2, i32 noundef 2050)
  br label %102

102:                                              ; preds = %95, %74, %11, %8, %100, %52
  %.sroa.073.0 = phi double [ %.sroa.073.0.copyload, %52 ], [ 0.000000e+00, %100 ], [ %19, %11 ], [ 0.000000e+00, %8 ], [ %99, %95 ], [ 0.000000e+00, %74 ]
  %.sroa.5.0 = phi double [ %.sroa.5.0.copyload, %52 ], [ 0.000000e+00, %100 ], [ 0.000000e+00, %11 ], [ 0.000000e+00, %8 ], [ %.sroa.6.0, %95 ], [ %.sroa.6.0, %74 ]
  %.fca.0.insert = insertvalue { double, double } poison, double %.sroa.073.0, 0
  %.fca.1.insert = insertvalue { double, double } %.fca.0.insert, double %.sroa.5.0, 1
  ret { double, double } %.fca.1.insert
}